; ModuleID = 'source-C-CXX/29/2443.c'
source_filename = "source-C-CXX/29/2443.c"
target datalayout = "e-m:e-p270:32:32-p271:32:32-p272:64:64-i64:64-f80:128-n8:16:32:64-S128"
target triple = "x86_64-pc-linux-gnu"

@.str = private unnamed_addr constant [3 x i8] c"%d\00", align 1

; Function Attrs: nofree nounwind sspstrong uwtable
define dso_local i32 @main() local_unnamed_addr #0 {
  %1 = alloca i32, align 4
  %2 = bitcast i32* %1 to i8*
  call void @llvm.lifetime.start.p0i8(i64 4, i8* nonnull %2) #4
  %3 = call i32 (i8*, ...) @__isoc99_scanf(i8* getelementptr inbounds ([3 x i8], [3 x i8]* @.str, i64 0, i64 0), i32* nonnull %1)
  %4 = load i32, i32* %1, align 4, !tbaa !5
  %5 = icmp slt i32 %4, 1
  br i1 %5, label %47, label %6

6:                                                ; preds = %0
  %7 = icmp ult i32 %4, 8
  br i1 %7, label %34, label %8

8:                                                ; preds = %6
  %9 = and i32 %4, -8
  %10 = or i32 %9, 1
  br label %11

11:                                               ; preds = %11, %8
  %12 = phi i32 [ 0, %8 ], [ %27, %11 ]
  %13 = phi <4 x i32> [ <i32 1, i32 2, i32 3, i32 4>, %8 ], [ %28, %11 ]
  %14 = phi <4 x i32> [ zeroinitializer, %8 ], [ %25, %11 ]
  %15 = phi <4 x i32> [ zeroinitializer, %8 ], [ %26, %11 ]
  %16 = add <4 x i32> %13, <i32 4, i32 4, i32 4, i32 4>
  %17 = urem <4 x i32> %13, <i32 100, i32 100, i32 100, i32 100>
  %18 = urem <4 x i32> %16, <i32 100, i32 100, i32 100, i32 100>
  %19 = icmp eq <4 x i32> %17, zeroinitializer
  %20 = icmp eq <4 x i32> %18, zeroinitializer
  %21 = mul nsw <4 x i32> %13, %13
  %22 = mul nsw <4 x i32> %16, %16
  %23 = select <4 x i1> %19, <4 x i32> zeroinitializer, <4 x i32> %21
  %24 = select <4 x i1> %20, <4 x i32> zeroinitializer, <4 x i32> %22
  %25 = add <4 x i32> %14, %23
  %26 = add <4 x i32> %15, %24
  %27 = add nuw i32 %12, 8
  %28 = add <4 x i32> %13, <i32 8, i32 8, i32 8, i32 8>
  %29 = icmp eq i32 %27, %9
  br i1 %29, label %30, label %11, !llvm.loop !9

30:                                               ; preds = %11
  %31 = add <4 x i32> %26, %25
  %32 = call i32 @llvm.vector.reduce.add.v4i32(<4 x i32> %31)
  %33 = icmp eq i32 %4, %9
  br i1 %33, label %47, label %34

34:                                               ; preds = %6, %30
  %35 = phi i32 [ 1, %6 ], [ %10, %30 ]
  %36 = phi i32 [ 0, %6 ], [ %32, %30 ]
  br label %37

37:                                               ; preds = %34, %37
  %38 = phi i32 [ %45, %37 ], [ %35, %34 ]
  %39 = phi i32 [ %44, %37 ], [ %36, %34 ]
  %40 = urem i32 %38, 100
  %41 = icmp eq i32 %40, 0
  %42 = mul nsw i32 %38, %38
  %43 = select i1 %41, i32 0, i32 %42
  %44 = add nuw nsw i32 %39, %43
  %45 = add nuw i32 %38, 1
  %46 = icmp eq i32 %38, %4
  br i1 %46, label %47, label %37, !llvm.loop !12

47:                                               ; preds = %37, %30, %0
  %48 = phi i32 [ 0, %0 ], [ %32, %30 ], [ %44, %37 ]
  %49 = call i32 (i8*, ...) @printf(i8* nonnull dereferenceable(1) getelementptr inbounds ([3 x i8], [3 x i8]* @.str, i64 0, i64 0), i32 %48)
  call void @llvm.lifetime.end.p0i8(i64 4, i8* nonnull %2) #4
  ret i32 0
}

; Function Attrs: argmemonly mustprogress nofree nosync nounwind willreturn
declare void @llvm.lifetime.start.p0i8(i64 immarg, i8* nocapture) #1

; Function Attrs: nofree nounwind
declare noundef i32 @__isoc99_scanf(i8* nocapture noundef readonly, ...) local_unnamed_addr #2

; Function Attrs: nofree nounwind
declare noundef i32 @printf(i8* nocapture noundef readonly, ...) local_unnamed_addr #2

; Function Attrs: argmemonly mustprogress nofree nosync nounwind willreturn
declare void @llvm.lifetime.end.p0i8(i64 immarg, i8* nocapture) #1

; Function Attrs: nofree nosync nounwind readnone willreturn
declare i32 @llvm.vector.reduce.add.v4i32(<4 x i32>) #3


!llvm.module.flags = !{!0, !1, !2, !3}
!llvm.ident = !{!4}

!0 = !{i32 1, !"wchar_size", i32 4}
!1 = !{i32 7, !"PIC Level", i32 2}
!2 = !{i32 7, !"PIE Level", i32 2}
!3 = !{i32 7, !"uwtable", i32 1}
!4 = !{!"clang version 13.0.0"}
!5 = !{!6, !6, i64 0}
!6 = !{!"int", !7, i64 0}
!7 = !{!"omnipotent char", !8, i64 0}
!8 = !{!"Simple C/C++ TBAA"}
!9 = distinct !{!9, !10, !11}
!10 = !{!"llvm.loop.mustprogress"}
!11 = !{!"llvm.loop.isvectorized", i32 1}
!12 = distinct !{!12, !10, !13, !11}
!13 = !{!"llvm.loop.unroll.runtime.disable"}
